target datalayout = "e-m:e-p270:32:32-p271:32:32-p272:64:64-i64:64-i128:128-f80:128-n8:16:32:64-S128"
target triple = "x86_64-pc-linux-gnu"

; Function Attrs: nounwind uwtable
define internal void @scatter_int32_3(ptr noundef %0, ptr noundef %1, i64 noundef %2, i64 noundef %3, i64 noundef %4) #0 {
  %6 = alloca ptr, align 8
  %7 = alloca ptr, align 8
  %8 = alloca i64, align 8
  %9 = alloca i64, align 8
  %10 = alloca i64, align 8
  %11 = alloca i32, align 4
  %12 = alloca i32, align 4
  %13 = alloca i32, align 4
  store ptr %0, ptr %6, align 8, !tbaa !8
  store ptr %1, ptr %7, align 8, !tbaa !8
  store i64 %2, ptr %8, align 8, !tbaa !21
  store i64 %3, ptr %9, align 8, !tbaa !21
  store i64 %4, ptr %10, align 8, !tbaa !21
  call void @llvm.lifetime.start.p0(i64 4, ptr %11) #4
  call void @llvm.lifetime.start.p0(i64 4, ptr %12) #4
  call void @llvm.lifetime.start.p0(i64 4, ptr %13) #4
  store i32 0, ptr %13, align 4, !tbaa !20
  br label %14

14:                                               ; preds = %47, %5
  %15 = load i32, ptr %13, align 4, !tbaa !20
  %16 = icmp ult i32 %15, 4
  br i1 %16, label %17, label %56

17:                                               ; preds = %14
  store i32 0, ptr %12, align 4, !tbaa !20
  br label %18

18:                                               ; preds = %37, %17
  %19 = load i32, ptr %12, align 4, !tbaa !20
  %20 = icmp ult i32 %19, 4
  br i1 %20, label %21, label %46

21:                                               ; preds = %18
  store i32 0, ptr %11, align 4, !tbaa !20
  br label %22

22:                                               ; preds = %30, %21
  %23 = load i32, ptr %11, align 4, !tbaa !20
  %24 = icmp ult i32 %23, 4
  br i1 %24, label %25, label %36

25:                                               ; preds = %22
  %26 = load ptr, ptr %6, align 8, !tbaa !8
  %27 = getelementptr inbounds nuw i32, ptr %26, i32 1
  store ptr %27, ptr %6, align 8, !tbaa !8
  %28 = load i32, ptr %26, align 4, !tbaa !20
  %29 = load ptr, ptr %7, align 8, !tbaa !8
  store i32 %28, ptr %29, align 4, !tbaa !20
  br label %30

30:                                               ; preds = %25
  %31 = load i32, ptr %11, align 4, !tbaa !20
  %32 = add i32 %31, 1
  store i32 %32, ptr %11, align 4, !tbaa !20
  %33 = load i64, ptr %8, align 8, !tbaa !21
  %34 = load ptr, ptr %7, align 8, !tbaa !8
  %35 = getelementptr inbounds i32, ptr %34, i64 %33
  store ptr %35, ptr %7, align 8, !tbaa !8
  br label %22

36:                                               ; preds = %22
  br label %37

37:                                               ; preds = %36
  %38 = load i32, ptr %12, align 4, !tbaa !20
  %39 = add i32 %38, 1
  store i32 %39, ptr %12, align 4, !tbaa !20
  %40 = load i64, ptr %9, align 8, !tbaa !21
  %41 = load i64, ptr %8, align 8, !tbaa !21
  %42 = mul nsw i64 4, %41
  %43 = sub nsw i64 %40, %42
  %44 = load ptr, ptr %7, align 8, !tbaa !8
  %45 = getelementptr inbounds i32, ptr %44, i64 %43
  store ptr %45, ptr %7, align 8, !tbaa !8
  br label %18

46:                                               ; preds = %18
  br label %47

47:                                               ; preds = %46
  %48 = load i32, ptr %13, align 4, !tbaa !20
  %49 = add i32 %48, 1
  store i32 %49, ptr %13, align 4, !tbaa !20
  %50 = load i64, ptr %10, align 8, !tbaa !21
  %51 = load i64, ptr %9, align 8, !tbaa !21
  %52 = mul nsw i64 4, %51
  %53 = sub nsw i64 %50, %52
  %54 = load ptr, ptr %7, align 8, !tbaa !8
  %55 = getelementptr inbounds i32, ptr %54, i64 %53
  store ptr %55, ptr %7, align 8, !tbaa !8
  br label %14

56:                                               ; preds = %14
  call void @llvm.lifetime.end.p0(i64 4, ptr %13) #4
  call void @llvm.lifetime.end.p0(i64 4, ptr %12) #4
  call void @llvm.lifetime.end.p0(i64 4, ptr %11) #4
  ret void
}

; Function Attrs: nounwind uwtable
define i64 @zfp_decode_block_strided_int32_3(ptr noundef %0, ptr noundef %1, i64 noundef %2, i64 noundef %3, i64 noundef %4) #0 {
  %6 = alloca ptr, align 8
  %7 = alloca ptr, align 8
  %8 = alloca i64, align 8
  %9 = alloca i64, align 8
  %10 = alloca i64, align 8
  %11 = alloca [64 x i32], align 256
  %12 = alloca i64, align 8
  store ptr %0, ptr %6, align 8, !tbaa !4
  store ptr %1, ptr %7, align 8, !tbaa !8
  store i64 %2, ptr %8, align 8, !tbaa !21
  store i64 %3, ptr %9, align 8, !tbaa !21
  store i64 %4, ptr %10, align 8, !tbaa !21
  call void @llvm.lifetime.start.p0(i64 256, ptr %11) #4
  call void @llvm.lifetime.start.p0(i64 8, ptr %12) #4
  %13 = load ptr, ptr %6, align 8, !tbaa !4
  %14 = getelementptr inbounds [64 x i32], ptr %11, i64 0, i64 0
  %15 = call i64 @zfp_decode_block_int32_3(ptr noundef %13, ptr noundef %14)
  store i64 %15, ptr %12, align 8, !tbaa !21
  %16 = getelementptr inbounds [64 x i32], ptr %11, i64 0, i64 0
  %17 = load ptr, ptr %7, align 8, !tbaa !8
  %18 = load i64, ptr %8, align 8, !tbaa !21
  %19 = load i64, ptr %9, align 8, !tbaa !21
  %20 = load i64, ptr %10, align 8, !tbaa !21
  call void @scatter_int32_3(ptr noundef %16, ptr noundef %17, i64 noundef %18, i64 noundef %19, i64 noundef %20)
  %21 = load i64, ptr %12, align 8, !tbaa !21
  call void @llvm.lifetime.end.p0(i64 8, ptr %12) #4
  call void @llvm.lifetime.end.p0(i64 256, ptr %11) #4
  ret i64 %21
}